ccopy_reg
_reconstructor
p1
(cdc.Constants
DRCESyncTasksCover
p2
c__builtin__
tuple
p3
(I2
g1
(cdc.EventObjects
SiteUpdate
p4
c__builtin__
object
p5
NtRp6
(dp7
S'urlType'
p8
NsS'filters'
p9
NsS'maxURLs'
p10
NsS'userId'
p11
NsS'criterions'
p12
NsS'iterations'
p13
NsS'httpTimeout'
p14
NsS'id'
p15
S'intel1'
p16
sS'contents'
p17
NsS'size'
p18
NsS'errors'
p19
NsS'fetchType'
p20
I1
sS'maxResourceSize'
p21
NsS'properties'
p22
NsS'priority'
p23
NsS'state'
p24
NsS'processingDelay'
p25
NsS'resources'
p26
g1
(capp.Utils
SQLExpression
p27
g5
NtRp28
(dp29
S'str'
p30
S'`Resources` + 1'
p31
sbsS'description'
p32
NsS'avgSpeed'
p33
NsS'recrawlPeriod'
p34
NsS'errorMask'
p35
NsS'uDate'
p36
NsS'collectedURLs'
p37
I0
sS'tcDate'
p38
NsS'maxErrors'
p39
NsS'recrawlDate'
p40
NsS'maxURLsFromPage'
p41
NsS'maxResources'
p42
NsS'requestDelay'
p43
NsS'cDate'
p44
NsS'urls'
p45
NsS'updateType'
p46
I0
sS'avgSpeedCounter'
p47
NsbttRp48
.