ccopy_reg
_reconstructor
p1
(cdc.Constants
DRCESyncTasksCover
p2
c__builtin__
tuple
p3
(I19
(lp4
g1
(cdc.EventObjects
FieldRecalculatorObj
p5
c__builtin__
object
p6
NtRp7
(dp8
S'recalcType'
p9
I0
sS'siteId'
p10
S'z1'
p11
sS'criterions'
p12
Nsbag1
(g5
g6
NtRp13
(dp14
g9
I1
sg10
S'z1'
p15
sg12
(dp16
VLIMIT
p17
V10
p18
ssbattRp19
.