ccopy_reg
_reconstructor
p1
(cdc.Constants
DRCESyncTasksCover
p2
c__builtin__
tuple
p3
(I5
g1
(cdc.EventObjects
SiteCleanup
p4
c__builtin__
object
p5
NtRp6
(dp7
S'delayedType'
p8
I0
sS'id'
p9
V862a1fa8ce13ec5c3e650bab3831ff95
p10
sS'taskType'
p11
I1
sbttRp12
.