ccopy_reg
_reconstructor
p1
(cdc.Constants
DRCESyncTasksCover
p2
c__builtin__
tuple
p3
(I3
g1
(cdc.EventObjects
SiteStatus
p4
c__builtin__
object
p5
NtRp6
(dp7
S'deleteTaskId'
p8
I1000
sS'id'
p9
V14a6d5a748956a438339281ed739f14d
p10
sbttRp11
.