ccopy_reg
_reconstructor
p1
(cdc.Constants
DRCESyncTasksCover
p2
c__builtin__
tuple
p3
(I5
g1
(cdc.EventObjects
SiteCleanup
p4
c__builtin__
object
p5
NtRp6
(dp7
S'delayedType'
p8
I0
sS'id'
p9
V19abcc850c62f3126721d29a55ae806f
p10
sS'taskType'
p11
I1
sbttRp12
.