ccopy_reg
_reconstructor
p1
(cdc.Constants
DRCESyncTasksCover
p2
c__builtin__
tuple
p3
(I4
g1
(cdc.EventObjects
SiteDelete
p4
c__builtin__
object
p5
NtRp6
(dp7
S'delayedType'
p8
I1
sS'id'
p9
Vz7
p10
sS'taskType'
p11
I1010
sbttRp12
.