ccopy_reg
_reconstructor
p1
(cdc.Constants
DRCESyncTasksCover
p2
c__builtin__
tuple
p3
(I10
(lp4
g1
(cdc.EventObjects
URLFetch
p5
c__builtin__
object
p6
NtRp7
(dp8
S'sitesCriterions'
p9
(dp10
S'ORDER BY'
p11
S'Priority DESC, TcDate ASC'
p12
ssS'algorithm'
p13
I0
sS'urlsCriterions'
p14
(dp15
VWHERE
p16
V1=1
p17
sS'LIMIT'
p18
V10
p19
sg11
VURL
p20
ssS'urlUpdate'
p21
NsS'maxURLs'
p22
I10
sS'lockIterationTimeout'
p23
I2
sS'sitesList'
p24
(lp25
Vz1
p26
asS'isLocking'
p27
I01
sbattRp28
.