ccopy_reg
_reconstructor
p1
(cdc.Constants
DRCESyncTasksCover
p2
c__builtin__
tuple
p3
(I12
(lp4
g1
(cdc.EventObjects
URLContentRequest
p5
c__builtin__
object
p6
NtRp7
(dp8
S'url'
p9
S'http://content.com/'
p10
sS'dbFieldsList'
p11
NsS'urlFetch'
p12
NsS'urlMd5'
p13
S'c4986d863c6ff11603dc717b6d3ef85d'
p14
sS'contentTypeMask'
p15
I253
sS'siteId'
p16
S'c4986d863c6ff11603dc717b6d3ef85d'
p17
sbattRp18
.