ccopy_reg
_reconstructor
p1
(cdc.Constants
DRCESyncTasksCover
p2
c__builtin__
tuple
p3
(I9
(lp4
g1
(cdc.EventObjects
URLDelete
p5
c__builtin__
object
p6
NtRp7
(dp8
S'url'
p9
S''
sS'urlType'
p10
S'0'
sS'siteId'
p11
S'z2'
p12
sS'criterions'
p13
NsS'delayedType'
p14
I1
sbag1
(g5
g6
NtRp15
(dp16
g9
Nsg10
S'0'
sg11
S'intel1'
p17
sg13
(dp18
VLIMIT
p19
V1
sVWHERE
p20
V`state` > 0
p21
sVORDER BY
p22
VURL
p23
ssg14
I1
sbattRp24
.