ccopy_reg
_reconstructor
p1
(cdc.Constants
DRCESyncTasksCover
p2
c__builtin__
tuple
p3
(I11
(lp4
g1
(cdc.EventObjects
URLCleanup
p5
c__builtin__
object
p6
NtRp7
(dp8
S'status'
p9
S'5'
sS'delayedType'
p10
I1
sS'urlType'
p11
S'type5'
p12
sS'url'
p13
S'http://url2.com'
p14
sS'state'
p15
S'1'
sS'siteId'
p16
I0
sbattRp17
.