ccopy_reg
_reconstructor
p1
(cdc.Constants
DRCESyncTasksCover
p2
c__builtin__
tuple
p3
(I18
(lp4
g1
(cdc.EventObjects
URLPurge
p5
c__builtin__
object
p6
NtRp7
(dp8
S'url'
p9
S''
sS'urlType'
p10
I0
sS'siteId'
p11
NsS'criterions'
p12
(dp13
VLIMIT
p14
V1
ssS'siteLimits'
p15
(lp16
I0
aI-1
asbattRp17
.