ccopy_reg
_reconstructor
p1
(cdc.Constants
DRCESyncTasksCover
p2
c__builtin__
tuple
p3
(I22
(lp4
g1
(cdc.EventObjects
URLPut
p5
c__builtin__
object
p6
NtRp7
(dp8
S'putDict'
p9
(dp10
VcDate
p11
NsVdata
p12
VFormato1_azzz
p13
ssS'urlMd5'
p14
S'987a52f78fd0e7b39d7744fda5159a35'
p15
sS'siteId'
p16
S'987a52f78fd0e7b39d7744fda5159a35'
p17
sS'criterions'
p18
NsbattRp19
.