ccopy_reg
_reconstructor
p1
(cdc.Constants
DRCESyncTasksCover
p2
c__builtin__
tuple
p3
(I9
(lp4
g1
(cdc.EventObjects
URLDelete
p5
c__builtin__
object
p6
NtRp7
(dp8
S'url'
p9
S'http://url1.com/'
p10
sS'urlType'
p11
S'type2'
p12
sS'siteId'
p13
Vz1
p14
sS'delayedType'
p15
I1
sbattRp16
.