ccopy_reg
_reconstructor
p1
(cdc.Constants
DRCESyncTasksCover
p2
c__builtin__
tuple
p3
(I6
(lp4
g1
(cdc.EventObjects
URL
p5
c__builtin__
object
p6
NtRp7
(dp8
S'totalTime'
p9
I16161
sS'linksI'
p10
I10
sS'contentMask'
p11
I0
sS'linksE'
p12
I10
sS'processingTime'
p13
I1120
sS'CDate'
p14
g1
(capp.Utils
SQLExpression
p15
g6
NtRp16
(dp17
S'str'
p18
S"'12-12-12 11:11:11'"
p19
sbsS'mRateCounter'
p20
I77
sS'httpTimeout'
p21
I33000
sS'size'
p22
I1001
sS'requestDelay'
p23
I11
sS'tagsCount'
p24
I0
sS'mRate'
p25
I8
sS'charset'
p26
S'koi-8'
p27
sS'maxURLsFromPage'
p28
I11
sS'httpCode'
p29
I8
sS'priority'
p30
I0
sS'state'
p31
I1
sS'urlMd5'
p32
S'3e0dc48146e0b0bc283af43aa0801ac2'
p33
sS'pDate'
p34
g1
(g15
g6
NtRp35
(dp36
g18
S'NOW()'
p37
sbsS'crawlingTime'
p38
I3003
sS'urlUpdate'
p39
NsS'type'
p40
I11
sS'parentMd5'
p41
S''
sS'status'
p42
I90
sS'siteSelect'
p43
I1
sS'contentType'
p44
S'7'
sS'processingDelay'
p45
I11
sS'errorMask'
p46
I0
sS'httpMethod'
p47
S''
sS'eTag'
p48
S''
sS'siteId'
p49
S'07c5d803a1c1507df633437649240c78'
p50
sS'freq'
p51
I888
sS'tcDate'
p52
g1
(g15
g6
NtRp53
(dp54
g18
S"'12-12-12 12:12:12'"
p55
sbsS'rawContentMd5'
p56
S''
sS'url'
p57
S'http://age.com/path1/'
p58
sS'crawled'
p59
I55
sS'UDate'
p60
g1
(g15
g6
NtRp61
(dp62
g18
S"'12-12-12 12:12:12'"
p63
sbsS'contentURLMd5'
p64
S''
sS'batchId'
p65
I1
sS'depth'
p66
I19
sS'processed'
p67
I200
sS'lastModified'
p68
g1
(g15
g6
NtRp69
(dp70
g18
S''
sbsS'tagsMask'
p71
I0
sbag1
(g5
g6
NtRp72
(dp73
g9
I16161
sg10
I10
sg11
I0
sg12
I10
sg13
I1120
sg14
g1
(g15
g6
NtRp74
(dp75
g18
S"'12-12-12 11:11:11'"
p76
sbsg20
I77
sg21
I33000
sg22
I1001
sg23
I11
sg24
I0
sg25
I8
sg26
S'koi-8'
p77
sg28
I11
sg29
I8
sg30
I0
sg31
I1
sg32
S'052f83b54b282d3db5c77d802f884f3c'
p78
sg34
g1
(g15
g6
NtRp79
(dp80
g18
S'NOW()'
p81
sbsg38
I3003
sg39
Nsg40
I11
sg41
S''
sg42
I90
sg43
I1
sg44
S'7'
sg45
I11
sg46
I0
sg47
S''
sg48
S''
sg49
g50
sg51
I888
sg52
g1
(g15
g6
NtRp82
(dp83
g18
S"'12-12-12 12:12:12'"
p84
sbsg56
S''
sg57
S'http://age.com/path2/'
p85
sg59
I55
sg60
g1
(g15
g6
NtRp86
(dp87
g18
S"'12-12-12 12:12:12'"
p88
sbsg64
S''
sg65
I1
sg66
I19
sg67
I200
sg68
g1
(g15
g6
NtRp89
(dp90
g18
S"'12-12-12 12:12:12'"
p91
sbsg71
I0
sbag1
(g5
g6
NtRp92
(dp93
g9
I16161
sg10
I10
sg11
I0
sg12
I10
sg13
I1120
sg14
g1
(g15
g6
NtRp94
(dp95
g18
S"'12-12-12 11:11:11'"
p96
sbsg20
I77
sg21
I33000
sg22
I1001
sg23
I11
sg24
I0
sg25
I8
sg26
S'koi-8'
p97
sg28
I11
sg29
I8
sg30
I0
sg31
I1
sg32
S'052f83b54b282d3db5c77d802f884f3c'
p98
sg34
g1
(g15
g6
NtRp99
(dp100
g18
S'NOW()'
p101
sbsg38
I3003
sg39
Nsg40
I11
sg41
S''
sg42
I90
sg43
I1
sg44
S'7'
sg45
I11
sg46
I0
sg47
S''
sg48
S''
sg49
g50
sg51
I888
sg52
g1
(g15
g6
NtRp102
(dp103
g18
S"'12-12-12 12:12:12'"
p104
sbsg56
S''
sg57
S'http://age.com/path2/'
p105
sg59
I55
sg60
g1
(g15
g6
NtRp106
(dp107
g18
S"'12-12-12 12:12:12'"
p108
sbsg64
S''
sg65
I1
sg66
I19
sg67
I200
sg68
g1
(g15
g6
NtRp109
(dp110
g18
S''
sbsg71
I0
sbag1
(g5
g6
NtRp111
(dp112
g9
I16161
sg10
I10
sg11
I0
sg12
I10
sg13
I1120
sg14
g1
(g15
g6
NtRp113
(dp114
g18
S"'12-12-12 11:11:11'"
p115
sbsg20
I77
sg21
I33000
sg22
I1001
sg23
I11
sg24
I0
sg25
I8
sg26
S'koi-8'
p116
sg28
I11
sg29
I8
sg30
I0
sg31
I1
sg32
S'886a73390d4be62132152a89740913a1'
p117
sg34
g1
(g15
g6
NtRp118
(dp119
g18
S'NOW()'
p120
sbsg38
I3003
sg39
Nsg40
I11
sg41
S''
sg42
I90
sg43
I1
sg44
S'7'
sg45
I11
sg46
I0
sg47
S''
sg48
S''
sg49
g50
sg51
I888
sg52
g1
(g15
g6
NtRp121
(dp122
g18
S"'12-12-12 12:12:12'"
p123
sbsg56
S''
sg57
S'http://age.com/path3/'
p124
sg59
I55
sg60
g1
(g15
g6
NtRp125
(dp126
g18
S"'12-12-12 12:12:12'"
p127
sbsg64
S''
sg65
I1
sg66
I19
sg67
I200
sg68
g1
(g15
g6
NtRp128
(dp129
g18
S''
sbsg71
I0
sbag1
(g5
g6
NtRp130
(dp131
g9
I16161
sg10
I10
sg11
I0
sg12
I10
sg13
I1120
sg14
g1
(g15
g6
NtRp132
(dp133
g18
S"'12-12-12 11:11:11'"
p134
sbsg20
I77
sg21
I33000
sg22
I1001
sg23
I11
sg24
I0
sg25
I8
sg26
S'koi-8'
p135
sg28
I11
sg29
I8
sg30
I0
sg31
I1
sg32
S'3e0dc48146e0b0bc283af43aa0801ac2'
p136
sg34
g1
(g15
g6
NtRp137
(dp138
g18
S'NOW()'
p139
sbsg38
I3003
sg39
Nsg40
I11
sg41
S''
sg42
I90
sg43
I1
sg44
S'7'
sg45
I11
sg46
I0
sg47
S''
sg48
S''
sg49
g50
sg51
I888
sg52
g1
(g15
g6
NtRp140
(dp141
g18
S"'12-12-12 12:12:12'"
p142
sbsg56
S''
sg57
S'http://age.com/path1/'
p143
sg59
I55
sg60
g1
(g15
g6
NtRp144
(dp145
g18
S"'12-12-12 12:12:12'"
p146
sbsg64
S''
sg65
I1
sg66
I19
sg67
I200
sg68
g1
(g15
g6
NtRp147
(dp148
g18
S''
sbsg71
I0
sbag1
(g5
g6
NtRp149
(dp150
g9
I16161
sg10
I10
sg11
I0
sg12
I10
sg13
I1120
sg14
g1
(g15
g6
NtRp151
(dp152
g18
S"'12-12-12 11:11:11'"
p153
sbsg20
I77
sg21
I33000
sg22
I1001
sg23
I11
sg24
I0
sg25
I8
sg26
S'koi-8'
p154
sg28
I11
sg29
I8
sg30
I0
sg31
I1
sg32
S'3e0dc48146e0b0bc283af43aa0801ac2'
p155
sg34
g1
(g15
g6
NtRp156
(dp157
g18
S'NOW()'
p158
sbsg38
I3003
sg39
Nsg40
I11
sg41
S''
sg42
I90
sg43
I1
sg44
S'7'
sg45
I11
sg46
I0
sg47
S''
sg48
S''
sg49
g50
sg51
I888
sg52
g1
(g15
g6
NtRp159
(dp160
g18
S"'12-12-12 12:12:12'"
p161
sbsg56
S''
sg57
S'http://age.com/path1/'
p162
sg59
I55
sg60
g1
(g15
g6
NtRp163
(dp164
g18
S"'12-12-12 12:12:12'"
p165
sbsg64
S''
sg65
I1
sg66
I19
sg67
I200
sg68
g1
(g15
g6
NtRp166
(dp167
g18
S"'12-12-12 12:12:12'"
p168
sbsg71
I0
sbag1
(g5
g6
NtRp169
(dp170
g9
I16161
sg10
I10
sg11
I0
sg12
I10
sg13
I1120
sg14
g1
(g15
g6
NtRp171
(dp172
g18
S"'12-12-12 11:11:11'"
p173
sbsg20
I77
sg21
I33000
sg22
I1001
sg23
I11
sg24
I0
sg25
I8
sg26
S'koi-8'
p174
sg28
I11
sg29
I8
sg30
I0
sg31
I1
sg32
S'507ff4d345b549ba7db9ea9267e3e803'
p175
sg34
g1
(g15
g6
NtRp176
(dp177
g18
S'NOW()'
p178
sbsg38
I3003
sg39
Nsg40
I11
sg41
S''
sg42
I90
sg43
I1
sg44
S'7'
sg45
I11
sg46
I0
sg47
S''
sg48
S''
sg49
g50
sg51
I888
sg52
g1
(g15
g6
NtRp179
(dp180
g18
S"'12-12-12 12:12:12'"
p181
sbsg56
S''
sg57
S'http://age.com/path4/'
p182
sg59
I55
sg60
g1
(g15
g6
NtRp183
(dp184
g18
S"'12-12-12 12:12:12'"
p185
sbsg64
S''
sg65
I1
sg66
I19
sg67
I200
sg68
g1
(g15
g6
NtRp186
(dp187
g18
S"'12-12-12 12:12:12'"
p188
sbsg71
I0
sbag1
(g5
g6
NtRp189
(dp190
g9
I16161
sg10
I10
sg11
I0
sg12
I10
sg13
I1120
sg14
g1
(g15
g6
NtRp191
(dp192
g18
S"'12-12-12 11:11:11'"
p193
sbsg20
I77
sg21
I33000
sg22
I1001
sg23
I11
sg24
I0
sg25
I8
sg26
S'koi-8'
p194
sg28
I11
sg29
I8
sg30
I0
sg31
I0
sg32
S'3e0dc48146e0b0bc283af43aa0801ac2'
p195
sg34
g1
(g15
g6
NtRp196
(dp197
g18
S'NOW()'
p198
sbsg38
I3003
sg39
Nsg40
I11
sg41
S''
sg42
I90
sg43
I1
sg44
S'7'
sg45
I11
sg46
I0
sg47
S''
sg48
S''
sg49
g50
sg51
I888
sg52
g1
(g15
g6
NtRp199
(dp200
g18
S"'12-12-12 12:12:12'"
p201
sbsg56
S''
sg57
S'http://age.com/path1/'
p202
sg59
I55
sg60
g1
(g15
g6
NtRp203
(dp204
g18
S"'12-12-12 12:12:12'"
p205
sbsg64
S''
sg65
I1
sg66
I19
sg67
I200
sg68
g1
(g15
g6
NtRp206
(dp207
g18
S"'12-12-12 12:12:12'"
p208
sbsg71
I0
sbattRp209
.