ccopy_reg
_reconstructor
p1
(cdc.Constants
DRCESyncTasksCover
p2
c__builtin__
tuple
p3
(I8
(lp4
g1
(cdc.EventObjects
URLStatus
p5
c__builtin__
object
p6
NtRp7
(dp8
S'url'
p9
S'http://url2.com/'
p10
sS'urlType'
p11
I15
sS'siteId'
p12
Vz1
p13
sbattRp14
.