ccopy_reg
_reconstructor
p1
(cdc.Constants
DRCESyncTasksCover
p2
c__builtin__
tuple
p3
(I18
(lp4
g1
(cdc.EventObjects
URLPurge
p5
c__builtin__
object
p6
NtRp7
(dp8
S'url'
p9
S'http://intel.com/path1/'
p10
sS'urlType'
p11
I0
sS'siteId'
p12
NsS'criterions'
p13
(dp14
VLIMIT
p15
V10
p16
ssS'siteLimits'
p17
(lp18
I1
aI2
asbag1
(g5
g6
NtRp19
(dp20
g9
S'http://intel.com/path1/'
p21
sg11
I0
sg12
S'intel1'
p22
sg13
Nsg17
NsbattRp23
.