ccopy_reg
_reconstructor
p1
(cdc.Constants
DRCESyncTasksCover
p2
c__builtin__
tuple
p3
(I10
(lp4
g1
(cdc.EventObjects
URLFetch
p5
c__builtin__
object
p6
NtRp7
(dp8
S'delayedType'
p9
I1
sS'sitesCriterions'
p10
(dp11
S'ORDER BY'
p12
S'Priority DESC, TcDate ASC'
p13
ssS'algorithm'
p14
I0
sS'urlsCriterions'
p15
(dp16
S'LIMIT'
p17
I20
sg12
S'CDate ASC'
p18
ssS'urlUpdate'
p19
NsS'maxURLs'
p20
I10
sS'lockIterationTimeout'
p21
I2
sS'sitesList'
p22
(lp23
Vz2
p24
aVintel1
p25
asS'isLocking'
p26
I01
sbattRp27
.