ccopy_reg
_reconstructor
p1
(cdc.Constants
DRCESyncTasksCover
p2
c__builtin__
tuple
p3
(I11
(lp4
g1
(cdc.EventObjects
URLCleanup
p5
c__builtin__
object
p6
NtRp7
(dp8
S'status'
p9
S'77'
p10
sS'delayedType'
p11
I0
sS'urlType'
p12
S'0'
sS'url'
p13
NsS'criterions'
p14
(dp15
VLIMIT
p16
V1
sVWHERE
p17
V`URL` <> 'http://url44.com/'
p18
sVORDER BY
p19
VURL
p20
ssS'state'
p21
S'77'
p22
sS'siteId'
p23
S'z44'
p24
sbattRp25
.